; Function Attrs: mustprogress nounwind uwtable
define internal fastcc void @_ZN12_GLOBAL__N_111StmtPrinter27VisitCXXScalarValueInitExprEPN5clang22CXXScalarValueInitExprE(ptr noundef nonnull align 8 dereferenceable(80) %0, ptr noundef readonly captures(none) %1) unnamed_addr #0 align 2 {
  %3 = alloca %"class.clang::QualType", align 8
  %4 = alloca %"class.llvm::Twine", align 8
  %5 = alloca %"class.clang::QualType", align 8
  %6 = alloca %"class.llvm::Twine", align 8
  %7 = getelementptr inbounds nuw i8, ptr %1, i64 16
  %8 = load ptr, ptr %7, align 8
  %.not = icmp eq ptr %8, null
  br i1 %.not, label %14, label %9

9:                                                ; preds = %2
  %.sroa.0.0.copyload.i = load i64, ptr %8, align 8
  store i64 %.sroa.0.0.copyload.i, ptr %3, align 8
  %10 = load ptr, ptr %0, align 8
  %11 = getelementptr inbounds nuw i8, ptr %0, i64 24
  %12 = getelementptr inbounds nuw i8, ptr %4, i64 32
  store i8 1, ptr %12, align 8
  %13 = getelementptr inbounds nuw i8, ptr %4, i64 33
  store i8 1, ptr %13, align 1
  call void @_ZNK5clang8QualType5printERN4llvm11raw_ostreamERKNS_14PrintingPolicyERKNS1_5TwineEj(ptr noundef nonnull align 8 dereferenceable(8) %3, ptr noundef nonnull align 8 dereferenceable(48) %10, ptr noundef nonnull align 8 dereferenceable(16) %11, ptr noundef nonnull align 8 dereferenceable(34) %4, i32 noundef 0) #19
  br label %20

14:                                               ; preds = %2
  %15 = getelementptr inbounds nuw i8, ptr %1, i64 8
  %.sroa.0.0.copyload.i5 = load i64, ptr %15, align 8
  store i64 %.sroa.0.0.copyload.i5, ptr %5, align 8
  %16 = load ptr, ptr %0, align 8
  %17 = getelementptr inbounds nuw i8, ptr %0, i64 24
  %18 = getelementptr inbounds nuw i8, ptr %6, i64 32
  store i8 1, ptr %18, align 8
  %19 = getelementptr inbounds nuw i8, ptr %6, i64 33
  store i8 1, ptr %19, align 1
  call void @_ZNK5clang8QualType5printERN4llvm11raw_ostreamERKNS_14PrintingPolicyERKNS1_5TwineEj(ptr noundef nonnull align 8 dereferenceable(8) %5, ptr noundef nonnull align 8 dereferenceable(48) %16, ptr noundef nonnull align 8 dereferenceable(16) %17, ptr noundef nonnull align 8 dereferenceable(34) %6, i32 noundef 0) #19
  br label %20

20:                                               ; preds = %14, %9
  %21 = load ptr, ptr %0, align 8
  %22 = getelementptr inbounds nuw i8, ptr %21, i64 24
  %23 = load ptr, ptr %22, align 8
  %24 = getelementptr inbounds nuw i8, ptr %21, i64 32
  %25 = load ptr, ptr %24, align 8
  %26 = ptrtoint ptr %23 to i64
  %27 = ptrtoint ptr %25 to i64
  %28 = sub i64 %26, %27
  %29 = icmp ult i64 %28, 2
  br i1 %29, label %30, label %32

30:                                               ; preds = %20
  %31 = call noundef nonnull align 8 dereferenceable(48) ptr @_ZN4llvm11raw_ostream5writeEPKcm(ptr noundef nonnull align 8 dereferenceable(48) %21, ptr noundef nonnull @.str.32, i64 noundef 2) #19
  br label %_ZN4llvm11raw_ostreamlsEPKc.exit

32:                                               ; preds = %20
  store i16 10536, ptr %25, align 1
  %33 = load ptr, ptr %24, align 8
  %34 = getelementptr inbounds nuw i8, ptr %33, i64 2
  store ptr %34, ptr %24, align 8
  br label %_ZN4llvm11raw_ostreamlsEPKc.exit

_ZN4llvm11raw_ostreamlsEPKc.exit:                 ; preds = %30, %32
  ret void
}